(lp0
S'poi'
p1
aS'exercised_stock_options'
p2
aS'total_stock_value'
p3
aS'f_shared_receipt_with_poi'
p4
aS'bonus'
p5
aS'total_payments'
p6
aS'f_to_poi'
p7
aS'f_long_term_incentive'
p8
aS'other'
p9
aS'salary'
p10
aS'restricted_stock'
p11
aS'f_from_poi'
p12
aS'deferred_income'
p13
aS'f_restricted_stock'
p14
aS'expenses'
p15
aS'deferral_payments'
p16
a.