(lp0
S'poi'
p1
aS'f_bonus'
p2
aS'deferral_payments'
p3
aS'f_from_poi'
p4
aS'f_salary'
p5
aS'deferred_income'
p6
aS'other'
p7
aS'f_shared_receipt_with_poi'
p8
aS'from_messages'
p9
aS'expenses'
p10
aS'from_this_person_to_poi'
p11
aS'long_term_incentive'
p12
aS'total_payments'
p13
aS'f_exercised_stock_options'
p14
aS'f_restricted_stock'
p15
aS'total_stock_value'
p16
a.