(lp0
S'poi'
p1
aS'shared_receipt_with_poi'
p2
aS'total_stock_value'
p3
aS'f_to_poi'
p4
aS'exercised_stock_options'
p5
aS'f_long_term_incentive'
p6
aS'f_bonus'
p7
aS'from_this_person_to_poi'
p8
aS'total_payments'
p9
a.